target datalayout = "e-m:e-p270:32:32-p271:32:32-p272:64:64-i64:64-i128:128-f80:128-n8:16:32:64-S128"
target triple = "x86_64-pc-linux-gnu"

%struct.Curl_cftype = type { ptr, i32, i32, ptr, ptr, ptr, ptr, ptr, ptr, ptr, ptr, ptr, ptr, ptr, ptr, ptr }
%struct.Curl_cfilter = type { ptr, ptr, ptr, ptr, i32, i8 }

@Curl_cfree = external global ptr, align 8

; Function Attrs: nounwind uwtable
define internal void @socks_proxy_cf_free(ptr noundef %0) #0 {
  %2 = alloca ptr, align 8
  %3 = alloca ptr, align 8
  store ptr %0, ptr %2, align 8, !tbaa !3
  call void @llvm.lifetime.start.p0(i64 8, ptr %3) #6
  %4 = load ptr, ptr %2, align 8, !tbaa !3
  %5 = getelementptr inbounds nuw %struct.Curl_cfilter, ptr %4, i32 0, i32 2
  %6 = load ptr, ptr %5, align 8, !tbaa !22
  store ptr %6, ptr %3, align 8, !tbaa !23
  %7 = load ptr, ptr %3, align 8, !tbaa !23
  %8 = icmp ne ptr %7, null
  br i1 %8, label %9, label %14

9:                                                ; preds = %1
  %10 = load ptr, ptr @Curl_cfree, align 8, !tbaa !32
  %11 = load ptr, ptr %3, align 8, !tbaa !23
  call void %10(ptr noundef %11)
  %12 = load ptr, ptr %2, align 8, !tbaa !3
  %13 = getelementptr inbounds nuw %struct.Curl_cfilter, ptr %12, i32 0, i32 2
  store ptr null, ptr %13, align 8, !tbaa !22
  br label %14

14:                                               ; preds = %9, %1
  call void @llvm.lifetime.end.p0(i64 8, ptr %3) #6
  ret void
}

; Function Attrs: nounwind uwtable
define internal void @socks_proxy_cf_close(ptr noundef %0, ptr noundef %1) #0 {
  %3 = alloca ptr, align 8
  %4 = alloca ptr, align 8
  store ptr %0, ptr %3, align 8, !tbaa !3
  store ptr %1, ptr %4, align 8, !tbaa !8
  br label %5

5:                                                ; preds = %2
  br label %6

6:                                                ; preds = %5
  %7 = load ptr, ptr %3, align 8, !tbaa !3
  %8 = getelementptr inbounds nuw %struct.Curl_cfilter, ptr %7, i32 0, i32 5
  %9 = load i8, ptr %8, align 4
  %10 = and i8 %9, -2
  %11 = or i8 %10, 0
  store i8 %11, ptr %8, align 4
  %12 = load ptr, ptr %3, align 8, !tbaa !3
  call void @socks_proxy_cf_free(ptr noundef %12)
  %13 = load ptr, ptr %3, align 8, !tbaa !3
  %14 = getelementptr inbounds nuw %struct.Curl_cfilter, ptr %13, i32 0, i32 1
  %15 = load ptr, ptr %14, align 8, !tbaa !25
  %16 = getelementptr inbounds nuw %struct.Curl_cfilter, ptr %15, i32 0, i32 0
  %17 = load ptr, ptr %16, align 8, !tbaa !26
  %18 = getelementptr inbounds nuw %struct.Curl_cftype, ptr %17, i32 0, i32 5
  %19 = load ptr, ptr %18, align 8, !tbaa !69
  %20 = load ptr, ptr %3, align 8, !tbaa !3
  %21 = getelementptr inbounds nuw %struct.Curl_cfilter, ptr %20, i32 0, i32 1
  %22 = load ptr, ptr %21, align 8, !tbaa !25
  %23 = load ptr, ptr %4, align 8, !tbaa !8
  call void %19(ptr noundef %22, ptr noundef %23)
  ret void
}