; Function Attrs: nounwind uwtable
define internal void @socks_proxy_cf_close(ptr noundef captures(none) %0, ptr noundef %1) #0 {
  %3 = getelementptr inbounds nuw i8, ptr %0, i64 36
  %4 = load i8, ptr %3, align 4
  %5 = and i8 %4, -2
  store i8 %5, ptr %3, align 4
  %6 = getelementptr inbounds nuw i8, ptr %0, i64 16
  %7 = load ptr, ptr %6, align 8, !tbaa !3
  %.not.i = icmp eq ptr %7, null
  br i1 %.not.i, label %socks_proxy_cf_free.exit, label %8

8:                                                ; preds = %2
  %9 = load ptr, ptr @Curl_cfree, align 8, !tbaa !12
  tail call void %9(ptr noundef nonnull %7) #7
  store ptr null, ptr %6, align 8, !tbaa !3
  br label %socks_proxy_cf_free.exit

socks_proxy_cf_free.exit:                         ; preds = %2, %8
  %10 = getelementptr inbounds nuw i8, ptr %0, i64 8
  %11 = load ptr, ptr %10, align 8, !tbaa !15
  %12 = load ptr, ptr %11, align 8, !tbaa !16
  %13 = getelementptr inbounds nuw i8, ptr %12, i64 32
  %14 = load ptr, ptr %13, align 8, !tbaa !139
  tail call void %14(ptr noundef nonnull %11, ptr noundef %1) #7
  ret void
}